target datalayout = "e-m:e-p270:32:32-p271:32:32-p272:64:64-i64:64-i128:128-f80:128-n8:16:32:64-S128"
target triple = "x86_64-pc-linux-gnu"

%struct._cwd_state = type { ptr, i64 }

; Function Attrs: nounwind uwtable
define dso_local ptr @tsrm_realpath(ptr noundef %0, ptr noundef %1) #0 {
  %3 = alloca ptr, align 8
  %4 = alloca ptr, align 8
  %5 = alloca ptr, align 8
  %6 = alloca %struct._cwd_state, align 8
  %7 = alloca [4096 x i8], align 16
  %8 = alloca i32, align 4
  %9 = alloca i64, align 8
  store ptr %0, ptr %4, align 8, !tbaa !12
  store ptr %1, ptr %5, align 8, !tbaa !12
  call void @llvm.lifetime.start.p0(i64 16, ptr %6) #16
  call void @llvm.lifetime.start.p0(i64 4096, ptr %7) #16
  %10 = load ptr, ptr %4, align 8, !tbaa !12
  %11 = load i8, ptr %10, align 1, !tbaa !4
  %12 = icmp ne i8 %11, 0
  br i1 %12, label %26, label %13

13:                                               ; preds = %2
  %14 = call noalias ptr @_emalloc_8()
  %15 = getelementptr inbounds nuw %struct._cwd_state, ptr %6, i32 0, i32 0
  store ptr %14, ptr %15, align 8, !tbaa !7
  %16 = getelementptr inbounds nuw %struct._cwd_state, ptr %6, i32 0, i32 0
  %17 = load ptr, ptr %16, align 8, !tbaa !7
  %18 = getelementptr inbounds i8, ptr %17, i64 0
  store i8 0, ptr %18, align 1, !tbaa !4
  %19 = getelementptr inbounds nuw %struct._cwd_state, ptr %6, i32 0, i32 1
  store i64 0, ptr %19, align 8, !tbaa !13
  %20 = getelementptr inbounds [4096 x i8], ptr %7, i64 0, i64 0
  %21 = call ptr @getcwd(ptr noundef %20, i64 noundef 4096) #16
  %22 = icmp ne ptr %21, null
  br i1 %22, label %23, label %25

23:                                               ; preds = %13
  %24 = getelementptr inbounds [4096 x i8], ptr %7, i64 0, i64 0
  store ptr %24, ptr %4, align 8, !tbaa !12
  br label %25

25:                                               ; preds = %23, %13
  br label %51

26:                                               ; preds = %2
  %27 = load ptr, ptr %4, align 8, !tbaa !12
  %28 = getelementptr inbounds i8, ptr %27, i64 0
  %29 = load i8, ptr %28, align 1, !tbaa !4
  %30 = sext i8 %29 to i32
  %31 = icmp eq i32 %30, 47
  br i1 %31, label %43, label %32

32:                                               ; preds = %26
  %33 = getelementptr inbounds [4096 x i8], ptr %7, i64 0, i64 0
  %34 = call ptr @getcwd(ptr noundef %33, i64 noundef 4096) #16
  %35 = icmp ne ptr %34, null
  br i1 %35, label %36, label %43

36:                                               ; preds = %32
  %37 = getelementptr inbounds [4096 x i8], ptr %7, i64 0, i64 0
  %38 = call noalias ptr @_estrdup(ptr noundef %37)
  %39 = getelementptr inbounds nuw %struct._cwd_state, ptr %6, i32 0, i32 0
  store ptr %38, ptr %39, align 8, !tbaa !7
  %40 = getelementptr inbounds [4096 x i8], ptr %7, i64 0, i64 0
  %41 = call i64 @strlen(ptr noundef %40) #17
  %42 = getelementptr inbounds nuw %struct._cwd_state, ptr %6, i32 0, i32 1
  store i64 %41, ptr %42, align 8, !tbaa !13
  br label %50

43:                                               ; preds = %32, %26
  %44 = call noalias ptr @_emalloc_8()
  %45 = getelementptr inbounds nuw %struct._cwd_state, ptr %6, i32 0, i32 0
  store ptr %44, ptr %45, align 8, !tbaa !7
  %46 = getelementptr inbounds nuw %struct._cwd_state, ptr %6, i32 0, i32 0
  %47 = load ptr, ptr %46, align 8, !tbaa !7
  %48 = getelementptr inbounds i8, ptr %47, i64 0
  store i8 0, ptr %48, align 1, !tbaa !4
  %49 = getelementptr inbounds nuw %struct._cwd_state, ptr %6, i32 0, i32 1
  store i64 0, ptr %49, align 8, !tbaa !13
  br label %50

50:                                               ; preds = %43, %36
  br label %51

51:                                               ; preds = %50, %25
  %52 = load ptr, ptr %4, align 8, !tbaa !12
  %53 = call i32 @virtual_file_ex(ptr noundef %6, ptr noundef %52, ptr noundef null, i32 noundef 2)
  %54 = icmp ne i32 %53, 0
  br i1 %54, label %55, label %58

55:                                               ; preds = %51
  %56 = getelementptr inbounds nuw %struct._cwd_state, ptr %6, i32 0, i32 0
  %57 = load ptr, ptr %56, align 8, !tbaa !7
  call void @_efree(ptr noundef %57)
  store ptr null, ptr %3, align 8
  store i32 1, ptr %8, align 4
  br label %84

58:                                               ; preds = %51
  %59 = load ptr, ptr %5, align 8, !tbaa !12
  %60 = icmp ne ptr %59, null
  br i1 %60, label %61, label %81

61:                                               ; preds = %58
  call void @llvm.lifetime.start.p0(i64 8, ptr %9) #16
  %62 = getelementptr inbounds nuw %struct._cwd_state, ptr %6, i32 0, i32 1
  %63 = load i64, ptr %62, align 8, !tbaa !13
  %64 = icmp ugt i64 %63, 4095
  br i1 %64, label %65, label %66

65:                                               ; preds = %61
  br label %69

66:                                               ; preds = %61
  %67 = getelementptr inbounds nuw %struct._cwd_state, ptr %6, i32 0, i32 1
  %68 = load i64, ptr %67, align 8, !tbaa !13
  br label %69

69:                                               ; preds = %66, %65
  %70 = phi i64 [ 4095, %65 ], [ %68, %66 ]
  store i64 %70, ptr %9, align 8, !tbaa !26
  %71 = load ptr, ptr %5, align 8, !tbaa !12
  %72 = getelementptr inbounds nuw %struct._cwd_state, ptr %6, i32 0, i32 0
  %73 = load ptr, ptr %72, align 8, !tbaa !7
  %74 = load i64, ptr %9, align 8, !tbaa !26
  call void @llvm.memcpy.p0.p0.i64(ptr align 1 %71, ptr align 1 %73, i64 %74, i1 false)
  %75 = load ptr, ptr %5, align 8, !tbaa !12
  %76 = load i64, ptr %9, align 8, !tbaa !26
  %77 = getelementptr inbounds nuw i8, ptr %75, i64 %76
  store i8 0, ptr %77, align 1, !tbaa !4
  %78 = getelementptr inbounds nuw %struct._cwd_state, ptr %6, i32 0, i32 0
  %79 = load ptr, ptr %78, align 8, !tbaa !7
  call void @_efree(ptr noundef %79)
  %80 = load ptr, ptr %5, align 8, !tbaa !12
  store ptr %80, ptr %3, align 8
  store i32 1, ptr %8, align 4
  call void @llvm.lifetime.end.p0(i64 8, ptr %9) #16
  br label %84

81:                                               ; preds = %58
  %82 = getelementptr inbounds nuw %struct._cwd_state, ptr %6, i32 0, i32 0
  %83 = load ptr, ptr %82, align 8, !tbaa !7
  store ptr %83, ptr %3, align 8
  store i32 1, ptr %8, align 4
  br label %84

84:                                               ; preds = %81, %69, %55
  call void @llvm.lifetime.end.p0(i64 4096, ptr %7) #16
  call void @llvm.lifetime.end.p0(i64 16, ptr %6) #16
  %85 = load ptr, ptr %3, align 8
  ret ptr %85
}