; Function Attrs: nounwind uwtable
define dso_local ptr @tsrm_realpath(ptr noundef readonly captures(none) %0, ptr noundef writeonly captures(address_is_null, ret: address, provenance) %1) local_unnamed_addr #0 {
  %3 = alloca %struct._cwd_state, align 8
  %4 = alloca [4096 x i8], align 16
  call void @llvm.lifetime.start.p0(i64 16, ptr nonnull %3) #22
  call void @llvm.lifetime.start.p0(i64 4096, ptr nonnull %4) #22
  %5 = load i8, ptr %0, align 1, !tbaa !11
  switch i8 %5, label %10 [
    i8 0, label %6
    i8 47, label %16
  ]

6:                                                ; preds = %2
  %7 = tail call noalias ptr @_emalloc_8() #22
  store ptr %7, ptr %3, align 8, !tbaa !4
  store i8 0, ptr %7, align 1, !tbaa !11
  %8 = getelementptr inbounds nuw i8, ptr %3, i64 8
  store i64 0, ptr %8, align 8, !tbaa !12
  %9 = call ptr @getcwd(ptr noundef nonnull %4, i64 noundef 4096) #22
  %.not12 = icmp eq ptr %9, null
  %spec.select = select i1 %.not12, ptr %0, ptr %4
  br label %19

10:                                               ; preds = %2
  %11 = call ptr @getcwd(ptr noundef nonnull %4, i64 noundef 4096) #22
  %.not13 = icmp eq ptr %11, null
  br i1 %.not13, label %16, label %12

12:                                               ; preds = %10
  %13 = call noalias ptr @_estrdup(ptr noundef nonnull %4) #22
  store ptr %13, ptr %3, align 8, !tbaa !4
  %14 = call i64 @strlen(ptr noundef nonnull dereferenceable(1) %4) #23
  %15 = getelementptr inbounds nuw i8, ptr %3, i64 8
  store i64 %14, ptr %15, align 8, !tbaa !12
  br label %19

16:                                               ; preds = %2, %10
  %17 = call noalias ptr @_emalloc_8() #22
  store ptr %17, ptr %3, align 8, !tbaa !4
  store i8 0, ptr %17, align 1, !tbaa !11
  %18 = getelementptr inbounds nuw i8, ptr %3, i64 8
  store i64 0, ptr %18, align 8, !tbaa !12
  br label %19

19:                                               ; preds = %6, %12, %16
  %.09 = phi ptr [ %0, %16 ], [ %0, %12 ], [ %spec.select, %6 ]
  %20 = call i32 @virtual_file_ex(ptr noundef nonnull %3, ptr noundef nonnull %.09, ptr noundef null, i32 noundef 2)
  %.not14 = icmp eq i32 %20, 0
  br i1 %.not14, label %23, label %21

21:                                               ; preds = %19
  %22 = load ptr, ptr %3, align 8, !tbaa !4
  call void @_efree(ptr noundef %22) #22
  br label %32

23:                                               ; preds = %19
  %.not15 = icmp eq ptr %1, null
  br i1 %.not15, label %30, label %24

24:                                               ; preds = %23
  %25 = getelementptr inbounds nuw i8, ptr %3, i64 8
  %26 = load i64, ptr %25, align 8, !tbaa !12
  %27 = call i64 @llvm.umin.i64(i64 %26, i64 4095)
  %28 = load ptr, ptr %3, align 8, !tbaa !4
  call void @llvm.memcpy.p0.p0.i64(ptr nonnull align 1 %1, ptr align 1 %28, i64 %27, i1 false)
  %29 = getelementptr inbounds nuw i8, ptr %1, i64 %27
  store i8 0, ptr %29, align 1, !tbaa !11
  call void @_efree(ptr noundef %28) #22
  br label %32

30:                                               ; preds = %23
  %31 = load ptr, ptr %3, align 8, !tbaa !4
  br label %32

32:                                               ; preds = %30, %24, %21
  %.0 = phi ptr [ null, %21 ], [ %1, %24 ], [ %31, %30 ]
  call void @llvm.lifetime.end.p0(i64 4096, ptr nonnull %4) #22
  call void @llvm.lifetime.end.p0(i64 16, ptr nonnull %3) #22
  ret ptr %.0
}